target datalayout = "e-m:e-p270:32:32-p271:32:32-p272:64:64-i64:64-i128:128-f80:128-n8:16:32:64-S128"
target triple = "x86_64-pc-linux-gnu"

%"class.llvm::cl::opt" = type { %"class.llvm::cl::Option", %"class.llvm::cl::opt_storage", %"class.llvm::cl::parser", %"class.std::function" }
%"class.llvm::cl::Option" = type { ptr, i16, i16, i16, i16, %"class.llvm::StringRef", %"class.llvm::StringRef", %"class.llvm::StringRef", %"class.llvm::SmallVector", %"class.llvm::SmallPtrSet" }
%"class.llvm::StringRef" = type { ptr, i64 }
%"class.llvm::SmallVector" = type { %"class.llvm::SmallVectorImpl", %"struct.llvm::SmallVectorStorage" }
%"class.llvm::SmallVectorImpl" = type { %"class.llvm::SmallVectorTemplateBase" }
%"class.llvm::SmallVectorTemplateBase" = type { %"class.llvm::SmallVectorTemplateCommon" }
%"class.llvm::SmallVectorTemplateCommon" = type { %"class.llvm::SmallVectorBase" }
%"class.llvm::SmallVectorBase" = type { ptr, i32, i32 }
%"struct.llvm::SmallVectorStorage" = type { [8 x i8] }
%"class.llvm::SmallPtrSet" = type { %"class.llvm::SmallPtrSetImpl.base", [1 x ptr] }
%"class.llvm::SmallPtrSetImpl.base" = type { %"class.llvm::SmallPtrSetImplBase.base" }
%"class.llvm::SmallPtrSetImplBase.base" = type <{ ptr, ptr, i32, i32, i32 }>
%"class.llvm::cl::opt_storage" = type { i8, [7 x i8], %"struct.llvm::cl::OptionValue" }
%"struct.llvm::cl::OptionValue" = type { %"struct.llvm::cl::OptionValueBase.base", [6 x i8] }
%"struct.llvm::cl::OptionValueBase.base" = type { %"class.llvm::cl::OptionValueCopy.base" }
%"class.llvm::cl::OptionValueCopy.base" = type <{ %"struct.llvm::cl::GenericOptionValue", i8, i8 }>
%"struct.llvm::cl::GenericOptionValue" = type { ptr }
%"class.llvm::cl::parser" = type { %"class.llvm::cl::basic_parser" }
%"class.llvm::cl::basic_parser" = type { %"class.llvm::cl::basic_parser_impl" }
%"class.llvm::cl::basic_parser_impl" = type { ptr }
%"class.std::function" = type { %"class.std::_Function_base", ptr }
%"class.std::_Function_base" = type { %"union.std::_Any_data", ptr }
%"union.std::_Any_data" = type { %"union.std::_Nocopy_types" }
%"union.std::_Nocopy_types" = type { { i64, i64 } }
%"class.llvm::PhysicalRegisterUsageInfo" = type { %"class.llvm::ImmutablePass.base", [4 x i8], %"class.llvm::DenseMap.72", ptr }
%"class.llvm::ImmutablePass.base" = type { %"class.llvm::ModulePass.base" }
%"class.llvm::ModulePass.base" = type { %"class.llvm::Pass.base" }
%"class.llvm::Pass.base" = type <{ ptr, ptr, ptr, i32 }>
%"class.llvm::DenseMap.72" = type <{ ptr, i32, i32, i32, [4 x i8] }>

@_ZL12DumpRegUsage = internal global %"class.llvm::cl::opt" zeroinitializer, align 8

; Function Attrs: mustprogress nounwind uwtable
define linkonce_odr hidden noundef zeroext i1 @_ZNK4llvm2cl11opt_storageIbLb0ELb0EE8getValueEv(ptr noundef nonnull align 8 dereferenceable(24) %0) #1 comdat align 2 {
  %2 = alloca ptr, align 8
  store ptr %0, ptr %2, align 8
  %3 = load ptr, ptr %2, align 8
  %4 = getelementptr inbounds nuw %"class.llvm::cl::opt_storage", ptr %3, i32 0, i32 0
  %5 = load i8, ptr %4, align 8
  %6 = trunc i8 %5 to i1
  ret i1 %6
}

; Function Attrs: mustprogress nounwind uwtable
define linkonce_odr hidden noundef zeroext i1 @_ZNK4llvm2cl11opt_storageIbLb0ELb0EEcvbEv(ptr noundef nonnull align 8 dereferenceable(24) %0) #1 comdat align 2 {
  %2 = alloca ptr, align 8
  store ptr %0, ptr %2, align 8
  %3 = load ptr, ptr %2, align 8
  %4 = call noundef zeroext i1 @_ZNK4llvm2cl11opt_storageIbLb0ELb0EE8getValueEv(ptr noundef nonnull align 8 dereferenceable(24) %3)
  ret i1 %4
}

; Function Attrs: mustprogress nounwind uwtable
define dso_local noundef zeroext i1 @_ZN4llvm25PhysicalRegisterUsageInfo14doFinalizationERNS_6ModuleE(ptr noundef nonnull align 8 dereferenceable(64) %0, ptr noundef nonnull align 8 dereferenceable(857) %1) unnamed_addr #1 align 2 {
  %3 = alloca ptr, align 8
  %4 = alloca ptr, align 8
  store ptr %0, ptr %3, align 8
  store ptr %1, ptr %4, align 8
  %5 = load ptr, ptr %3, align 8
  %6 = call noundef zeroext i1 @_ZNK4llvm2cl11opt_storageIbLb0ELb0EEcvbEv(ptr noundef nonnull align 8 dereferenceable(24) getelementptr inbounds (i8, ptr @_ZL12DumpRegUsage, i64 128))
  br i1 %6, label %7, label %12

7:                                                ; preds = %2
  %8 = call noundef nonnull align 8 dereferenceable(96) ptr @_ZN4llvm4errsEv()
  %9 = load ptr, ptr %5, align 8
  %10 = getelementptr inbounds ptr, ptr %9, i64 5
  %11 = load ptr, ptr %10, align 8
  call void %11(ptr noundef nonnull align 8 dereferenceable(64) %5, ptr noundef nonnull align 8 dereferenceable(48) %8, ptr noundef null)
  br label %12

12:                                               ; preds = %7, %2
  %13 = getelementptr inbounds nuw %"class.llvm::PhysicalRegisterUsageInfo", ptr %5, i32 0, i32 2
  call void @_ZN4llvm8DenseMapIPKNS_8FunctionESt6vectorIjSaIjEENS_12DenseMapInfoIS3_vEENS_6detail12DenseMapPairIS3_S6_EEE16shrink_and_clearEv(ptr noundef nonnull align 8 dereferenceable(20) %13)
  ret i1 false
}