; Function Attrs: mustprogress nounwind uwtable
define dso_local noundef zeroext i1 @_ZN4llvm25PhysicalRegisterUsageInfo14doFinalizationERNS_6ModuleE(ptr noundef nonnull align 8 dereferenceable(64) %0, ptr nocapture nonnull readnone align 8 %1) unnamed_addr #0 align 2 {
  %3 = load i8, ptr getelementptr inbounds (i8, ptr @_ZL12DumpRegUsage, i64 128), align 8
  %4 = trunc i8 %3 to i1
  br i1 %4, label %5, label %10

5:                                                ; preds = %2
  %6 = tail call noundef nonnull align 8 dereferenceable(96) ptr @_ZN4llvm4errsEv() #18
  %7 = load ptr, ptr %0, align 8
  %8 = getelementptr inbounds i8, ptr %7, i64 40
  %9 = load ptr, ptr %8, align 8
  tail call void %9(ptr noundef nonnull align 8 dereferenceable(64) %0, ptr noundef nonnull align 8 dereferenceable(48) %6, ptr noundef null) #18
  br label %10

10:                                               ; preds = %5, %2
  %11 = getelementptr inbounds nuw i8, ptr %0, i64 32
  tail call void @_ZN4llvm8DenseMapIPKNS_8FunctionESt6vectorIjSaIjEENS_12DenseMapInfoIS3_vEENS_6detail12DenseMapPairIS3_S6_EEE16shrink_and_clearEv(ptr noundef nonnull align 8 dereferenceable(20) %11)
  ret i1 false
}